; ModuleID = '32/2071.c'
source_filename = "32/2071.c"
target datalayout = "e-m:e-p270:32:32-p271:32:32-p272:64:64-i64:64-f80:128-n8:16:32:64-S128"
target triple = "x86_64-pc-linux-gnu"

@.str = private unnamed_addr constant [3 x i8] c"%d\00", align 1
@.str.1 = private unnamed_addr constant [3 x i8] c"%s\00", align 1
@.str.2 = private unnamed_addr constant [2 x i8] c"\0A\00", align 1

; Function Attrs: noinline nounwind uwtable
define dso_local void @main() #0 {
  %1 = alloca i32, align 4
  %2 = alloca i32, align 4
  %3 = alloca i32, align 4
  %4 = alloca i32, align 4
  %5 = alloca i32, align 4
  %6 = alloca i32, align 4
  %7 = alloca i32, align 4
  %8 = alloca [1000 x [100 x i8]], align 16
  %9 = alloca [1000 x [100 x i8]], align 16
  %10 = alloca [1000 x [100 x i8]], align 16
  %11 = call i32 (i8*, ...) @__isoc99_scanf(i8* getelementptr inbounds ([3 x i8], [3 x i8]* @.str, i64 0, i64 0), i32* %1)
  %12 = call i32 @getchar()
  store i32 1, i32* %2, align 4
  br label %13

13:                                               ; preds = %29, %0
  %14 = load i32, i32* %2, align 4
  %15 = load i32, i32* %1, align 4
  %16 = icmp sle i32 %14, %15
  br i1 %16, label %17, label %32

17:                                               ; preds = %13
  %18 = load i32, i32* %2, align 4
  %19 = sext i32 %18 to i64
  %20 = getelementptr inbounds [1000 x [100 x i8]], [1000 x [100 x i8]]* %8, i64 0, i64 %19
  %21 = getelementptr inbounds [100 x i8], [100 x i8]* %20, i64 0, i64 0
  %22 = call i32 (i8*, ...) @__isoc99_scanf(i8* getelementptr inbounds ([3 x i8], [3 x i8]* @.str.1, i64 0, i64 0), i8* %21)
  %23 = load i32, i32* %2, align 4
  %24 = sext i32 %23 to i64
  %25 = getelementptr inbounds [1000 x [100 x i8]], [1000 x [100 x i8]]* %9, i64 0, i64 %24
  %26 = getelementptr inbounds [100 x i8], [100 x i8]* %25, i64 0, i64 0
  %27 = call i32 (i8*, ...) @__isoc99_scanf(i8* getelementptr inbounds ([3 x i8], [3 x i8]* @.str.1, i64 0, i64 0), i8* %26)
  %28 = call i32 (i8*, ...) @printf(i8* getelementptr inbounds ([2 x i8], [2 x i8]* @.str.2, i64 0, i64 0))
  br label %29

29:                                               ; preds = %17
  %30 = load i32, i32* %2, align 4
  %31 = add nsw i32 %30, 1
  store i32 %31, i32* %2, align 4
  br label %13

32:                                               ; preds = %13
  store i32 1, i32* %2, align 4
  br label %33

33:                                               ; preds = %246, %32
  %34 = load i32, i32* %2, align 4
  %35 = load i32, i32* %1, align 4
  %36 = icmp sle i32 %34, %35
  br i1 %36, label %37, label %249

37:                                               ; preds = %33
  %38 = load i32, i32* %2, align 4
  %39 = sext i32 %38 to i64
  %40 = getelementptr inbounds [1000 x [100 x i8]], [1000 x [100 x i8]]* %8, i64 0, i64 %39
  %41 = getelementptr inbounds [100 x i8], [100 x i8]* %40, i64 0, i64 0
  %42 = call i64 @strlen(i8* %41) #3
  %43 = trunc i64 %42 to i32
  store i32 %43, i32* %5, align 4
  %44 = load i32, i32* %2, align 4
  %45 = sext i32 %44 to i64
  %46 = getelementptr inbounds [1000 x [100 x i8]], [1000 x [100 x i8]]* %9, i64 0, i64 %45
  %47 = getelementptr inbounds [100 x i8], [100 x i8]* %46, i64 0, i64 0
  %48 = call i64 @strlen(i8* %47) #3
  %49 = trunc i64 %48 to i32
  store i32 %49, i32* %6, align 4
  %50 = load i32, i32* %5, align 4
  %51 = sub nsw i32 %50, 1
  store i32 %51, i32* %3, align 4
  %52 = load i32, i32* %6, align 4
  %53 = sub nsw i32 %52, 1
  store i32 %53, i32* %4, align 4
  br label %54

54:                                               ; preds = %136, %37
  %55 = load i32, i32* %4, align 4
  %56 = icmp sge i32 %55, 0
  br i1 %56, label %57, label %141

57:                                               ; preds = %54
  %58 = load i32, i32* %2, align 4
  %59 = sext i32 %58 to i64
  %60 = getelementptr inbounds [1000 x [100 x i8]], [1000 x [100 x i8]]* %8, i64 0, i64 %59
  %61 = load i32, i32* %3, align 4
  %62 = sext i32 %61 to i64
  %63 = getelementptr inbounds [100 x i8], [100 x i8]* %60, i64 0, i64 %62
  %64 = load i8, i8* %63, align 1
  %65 = sext i8 %64 to i32
  %66 = load i32, i32* %2, align 4
  %67 = sext i32 %66 to i64
  %68 = getelementptr inbounds [1000 x [100 x i8]], [1000 x [100 x i8]]* %9, i64 0, i64 %67
  %69 = load i32, i32* %4, align 4
  %70 = sext i32 %69 to i64
  %71 = getelementptr inbounds [100 x i8], [100 x i8]* %68, i64 0, i64 %70
  %72 = load i8, i8* %71, align 1
  %73 = sext i8 %72 to i32
  %74 = icmp sge i32 %65, %73
  br i1 %74, label %75, label %100

75:                                               ; preds = %57
  %76 = load i32, i32* %2, align 4
  %77 = sext i32 %76 to i64
  %78 = getelementptr inbounds [1000 x [100 x i8]], [1000 x [100 x i8]]* %8, i64 0, i64 %77
  %79 = load i32, i32* %3, align 4
  %80 = sext i32 %79 to i64
  %81 = getelementptr inbounds [100 x i8], [100 x i8]* %78, i64 0, i64 %80
  %82 = load i8, i8* %81, align 1
  %83 = sext i8 %82 to i32
  %84 = load i32, i32* %2, align 4
  %85 = sext i32 %84 to i64
  %86 = getelementptr inbounds [1000 x [100 x i8]], [1000 x [100 x i8]]* %9, i64 0, i64 %85
  %87 = load i32, i32* %4, align 4
  %88 = sext i32 %87 to i64
  %89 = getelementptr inbounds [100 x i8], [100 x i8]* %86, i64 0, i64 %88
  %90 = load i8, i8* %89, align 1
  %91 = sext i8 %90 to i32
  %92 = sub nsw i32 %83, %91
  %93 = trunc i32 %92 to i8
  %94 = load i32, i32* %2, align 4
  %95 = sext i32 %94 to i64
  %96 = getelementptr inbounds [1000 x [100 x i8]], [1000 x [100 x i8]]* %10, i64 0, i64 %95
  %97 = load i32, i32* %3, align 4
  %98 = sext i32 %97 to i64
  %99 = getelementptr inbounds [100 x i8], [100 x i8]* %96, i64 0, i64 %98
  store i8 %93, i8* %99, align 1
  br label %135

100:                                              ; preds = %57
  %101 = load i32, i32* %2, align 4
  %102 = sext i32 %101 to i64
  %103 = getelementptr inbounds [1000 x [100 x i8]], [1000 x [100 x i8]]* %8, i64 0, i64 %102
  %104 = load i32, i32* %3, align 4
  %105 = sext i32 %104 to i64
  %106 = getelementptr inbounds [100 x i8], [100 x i8]* %103, i64 0, i64 %105
  %107 = load i8, i8* %106, align 1
  %108 = sext i8 %107 to i32
  %109 = load i32, i32* %2, align 4
  %110 = sext i32 %109 to i64
  %111 = getelementptr inbounds [1000 x [100 x i8]], [1000 x [100 x i8]]* %9, i64 0, i64 %110
  %112 = load i32, i32* %4, align 4
  %113 = sext i32 %112 to i64
  %114 = getelementptr inbounds [100 x i8], [100 x i8]* %111, i64 0, i64 %113
  %115 = load i8, i8* %114, align 1
  %116 = sext i8 %115 to i32
  %117 = sub nsw i32 %108, %116
  %118 = add nsw i32 %117, 10
  %119 = trunc i32 %118 to i8
  %120 = load i32, i32* %2, align 4
  %121 = sext i32 %120 to i64
  %122 = getelementptr inbounds [1000 x [100 x i8]], [1000 x [100 x i8]]* %10, i64 0, i64 %121
  %123 = load i32, i32* %3, align 4
  %124 = sext i32 %123 to i64
  %125 = getelementptr inbounds [100 x i8], [100 x i8]* %122, i64 0, i64 %124
  store i8 %119, i8* %125, align 1
  %126 = load i32, i32* %2, align 4
  %127 = sext i32 %126 to i64
  %128 = getelementptr inbounds [1000 x [100 x i8]], [1000 x [100 x i8]]* %8, i64 0, i64 %127
  %129 = load i32, i32* %3, align 4
  %130 = sub nsw i32 %129, 1
  %131 = sext i32 %130 to i64
  %132 = getelementptr inbounds [100 x i8], [100 x i8]* %128, i64 0, i64 %131
  %133 = load i8, i8* %132, align 1
  %134 = add i8 %133, -1
  store i8 %134, i8* %132, align 1
  br label %135

135:                                              ; preds = %100, %75
  br label %136

136:                                              ; preds = %135
  %137 = load i32, i32* %3, align 4
  %138 = add nsw i32 %137, -1
  store i32 %138, i32* %3, align 4
  %139 = load i32, i32* %4, align 4
  %140 = add nsw i32 %139, -1
  store i32 %140, i32* %4, align 4
  br label %54

141:                                              ; preds = %54
  %142 = load i32, i32* %5, align 4
  %143 = load i32, i32* %6, align 4
  %144 = sub nsw i32 %142, %143
  %145 = sub nsw i32 %144, 1
  store i32 %145, i32* %3, align 4
  br label %146

146:                                              ; preds = %204, %141
  %147 = load i32, i32* %3, align 4
  %148 = icmp sge i32 %147, 0
  br i1 %148, label %149, label %207

149:                                              ; preds = %146
  %150 = load i32, i32* %2, align 4
  %151 = sext i32 %150 to i64
  %152 = getelementptr inbounds [1000 x [100 x i8]], [1000 x [100 x i8]]* %8, i64 0, i64 %151
  %153 = load i32, i32* %3, align 4
  %154 = sext i32 %153 to i64
  %155 = getelementptr inbounds [100 x i8], [100 x i8]* %152, i64 0, i64 %154
  %156 = load i8, i8* %155, align 1
  %157 = sext i8 %156 to i32
  %158 = icmp sge i32 %157, 48
  br i1 %158, label %159, label %176

159:                                              ; preds = %149
  %160 = load i32, i32* %2, align 4
  %161 = sext i32 %160 to i64
  %162 = getelementptr inbounds [1000 x [100 x i8]], [1000 x [100 x i8]]* %8, i64 0, i64 %161
  %163 = load i32, i32* %3, align 4
  %164 = sext i32 %163 to i64
  %165 = getelementptr inbounds [100 x i8], [100 x i8]* %162, i64 0, i64 %164
  %166 = load i8, i8* %165, align 1
  %167 = sext i8 %166 to i32
  %168 = sub nsw i32 %167, 48
  %169 = trunc i32 %168 to i8
  %170 = load i32, i32* %2, align 4
  %171 = sext i32 %170 to i64
  %172 = getelementptr inbounds [1000 x [100 x i8]], [1000 x [100 x i8]]* %10, i64 0, i64 %171
  %173 = load i32, i32* %3, align 4
  %174 = sext i32 %173 to i64
  %175 = getelementptr inbounds [100 x i8], [100 x i8]* %172, i64 0, i64 %174
  store i8 %169, i8* %175, align 1
  br label %203

176:                                              ; preds = %149
  %177 = load i32, i32* %2, align 4
  %178 = sext i32 %177 to i64
  %179 = getelementptr inbounds [1000 x [100 x i8]], [1000 x [100 x i8]]* %8, i64 0, i64 %178
  %180 = load i32, i32* %3, align 4
  %181 = sext i32 %180 to i64
  %182 = getelementptr inbounds [100 x i8], [100 x i8]* %179, i64 0, i64 %181
  %183 = load i8, i8* %182, align 1
  %184 = sext i8 %183 to i32
  %185 = add nsw i32 %184, 10
  %186 = sub nsw i32 %185, 48
  %187 = trunc i32 %186 to i8
  %188 = load i32, i32* %2, align 4
  %189 = sext i32 %188 to i64
  %190 = getelementptr inbounds [1000 x [100 x i8]], [1000 x [100 x i8]]* %10, i64 0, i64 %189
  %191 = load i32, i32* %3, align 4
  %192 = sext i32 %191 to i64
  %193 = getelementptr inbounds [100 x i8], [100 x i8]* %190, i64 0, i64 %192
  store i8 %187, i8* %193, align 1
  %194 = load i32, i32* %2, align 4
  %195 = sext i32 %194 to i64
  %196 = getelementptr inbounds [1000 x [100 x i8]], [1000 x [100 x i8]]* %8, i64 0, i64 %195
  %197 = load i32, i32* %3, align 4
  %198 = sub nsw i32 %197, 1
  %199 = sext i32 %198 to i64
  %200 = getelementptr inbounds [100 x i8], [100 x i8]* %196, i64 0, i64 %199
  %201 = load i8, i8* %200, align 1
  %202 = add i8 %201, -1
  store i8 %202, i8* %200, align 1
  br label %203

203:                                              ; preds = %176, %159
  br label %204

204:                                              ; preds = %203
  %205 = load i32, i32* %3, align 4
  %206 = add nsw i32 %205, -1
  store i32 %206, i32* %3, align 4
  br label %146

207:                                              ; preds = %146
  store i32 0, i32* %3, align 4
  br label %208

208:                                              ; preds = %220, %207
  %209 = load i32, i32* %2, align 4
  %210 = sext i32 %209 to i64
  %211 = getelementptr inbounds [1000 x [100 x i8]], [1000 x [100 x i8]]* %10, i64 0, i64 %210
  %212 = load i32, i32* %3, align 4
  %213 = sext i32 %212 to i64
  %214 = getelementptr inbounds [100 x i8], [100 x i8]* %211, i64 0, i64 %213
  %215 = load i8, i8* %214, align 1
  %216 = sext i8 %215 to i32
  %217 = icmp ne i32 %216, 0
  br i1 %217, label %218, label %219

218:                                              ; preds = %208
  br label %223

219:                                              ; preds = %208
  br label %220

220:                                              ; preds = %219
  %221 = load i32, i32* %3, align 4
  %222 = add nsw i32 %221, 1
  store i32 %222, i32* %3, align 4
  br label %208

223:                                              ; preds = %218
  %224 = load i32, i32* %3, align 4
  store i32 %224, i32* %7, align 4
  %225 = load i32, i32* %7, align 4
  store i32 %225, i32* %3, align 4
  br label %226

226:                                              ; preds = %241, %223
  %227 = load i32, i32* %3, align 4
  %228 = load i32, i32* %5, align 4
  %229 = sub nsw i32 %228, 1
  %230 = icmp sle i32 %227, %229
  br i1 %230, label %231, label %244

231:                                              ; preds = %226
  %232 = load i32, i32* %2, align 4
  %233 = sext i32 %232 to i64
  %234 = getelementptr inbounds [1000 x [100 x i8]], [1000 x [100 x i8]]* %10, i64 0, i64 %233
  %235 = load i32, i32* %3, align 4
  %236 = sext i32 %235 to i64
  %237 = getelementptr inbounds [100 x i8], [100 x i8]* %234, i64 0, i64 %236
  %238 = load i8, i8* %237, align 1
  %239 = sext i8 %238 to i32
  %240 = call i32 (i8*, ...) @printf(i8* getelementptr inbounds ([3 x i8], [3 x i8]* @.str, i64 0, i64 0), i32 %239)
  br label %241

241:                                              ; preds = %231
  %242 = load i32, i32* %3, align 4
  %243 = add nsw i32 %242, 1
  store i32 %243, i32* %3, align 4
  br label %226

244:                                              ; preds = %226
  %245 = call i32 (i8*, ...) @printf(i8* getelementptr inbounds ([2 x i8], [2 x i8]* @.str.2, i64 0, i64 0))
  br label %246

246:                                              ; preds = %244
  %247 = load i32, i32* %2, align 4
  %248 = add nsw i32 %247, 1
  store i32 %248, i32* %2, align 4
  br label %33

249:                                              ; preds = %33
  ret void
}

declare dso_local i32 @__isoc99_scanf(i8*, ...) #1

declare dso_local i32 @getchar() #1

declare dso_local i32 @printf(i8*, ...) #1

; Function Attrs: nounwind readonly
declare dso_local i64 @strlen(i8*) #2


!llvm.module.flags = !{!0}
!llvm.ident = !{!1}

!0 = !{i32 1, !"wchar_size", i32 4}
!1 = !{!"clang version 10.0.0-4ubuntu1 "}
